; Function Attrs: mustprogress nounwind uwtable
define hidden void @_ZN7oopDesc11print_valueEv(ptr noundef nonnull align 8 dereferenceable(16) %0) local_unnamed_addr #0 align 2 {
  %2 = load ptr, ptr @tty, align 8
  %3 = load i8, ptr @UseCompressedClassPointers, align 1
  %4 = trunc i8 %3 to i1
  %5 = getelementptr inbounds i8, ptr %0, i64 8
  br i1 %4, label %_ZN16java_lang_String11is_instanceEP7oopDesc.exit.i, label %_ZN16java_lang_String11is_instanceEP7oopDesc.exit.thread.i

_ZN16java_lang_String11is_instanceEP7oopDesc.exit.i: ; preds = %1
  %6 = load i32, ptr %5, align 8
  %7 = load ptr, ptr @_ZN23CompressedKlassPointers5_baseE, align 8
  %8 = load i32, ptr @_ZN23CompressedKlassPointers6_shiftE, align 4
  %9 = ptrtoint ptr %7 to i64
  %10 = zext i32 %6 to i64
  %11 = zext nneg i32 %8 to i64
  %12 = shl i64 %10, %11
  %13 = add i64 %12, %9
  %14 = inttoptr i64 %13 to ptr
  %15 = load ptr, ptr getelementptr inbounds (i8, ptr @_ZN9vmClasses8_klassesE, i64 8), align 8
  %16 = icmp eq ptr %15, %14
  br i1 %16, label %20, label %_ZNK7oopDesc5klassEv.exit.i

_ZN16java_lang_String11is_instanceEP7oopDesc.exit.thread.i: ; preds = %1
  %17 = load ptr, ptr %5, align 8
  %18 = load ptr, ptr getelementptr inbounds (i8, ptr @_ZN9vmClasses8_klassesE, i64 8), align 8
  %19 = icmp eq ptr %17, %18
  br i1 %19, label %20, label %_ZNK7oopDesc5klassEv.exit.i

20:                                               ; preds = %_ZN16java_lang_String11is_instanceEP7oopDesc.exit.thread.i, %_ZN16java_lang_String11is_instanceEP7oopDesc.exit.i
  tail call void @_ZN16java_lang_String5printEP7oopDescP12outputStream(ptr noundef nonnull %0, ptr noundef %2) #11
  %21 = ptrtoint ptr %0 to i64
  tail call void (ptr, ptr, ...) @_ZN12outputStream5printEPKcz(ptr noundef nonnull align 8 dereferenceable(56) %2, ptr noundef nonnull @.str.4, i64 noundef %21) #11
  br label %_ZNK7oopDesc14print_value_onEP12outputStream.exit

_ZNK7oopDesc5klassEv.exit.i:                      ; preds = %_ZN16java_lang_String11is_instanceEP7oopDesc.exit.thread.i, %_ZN16java_lang_String11is_instanceEP7oopDesc.exit.i
  %.0.i.i = phi ptr [ %14, %_ZN16java_lang_String11is_instanceEP7oopDesc.exit.i ], [ %17, %_ZN16java_lang_String11is_instanceEP7oopDesc.exit.thread.i ]
  %22 = load ptr, ptr %.0.i.i, align 8
  %23 = getelementptr inbounds i8, ptr %22, i64 296
  %24 = load ptr, ptr %23, align 8
  tail call void %24(ptr noundef nonnull align 8 dereferenceable(196) %.0.i.i, ptr noundef nonnull %0, ptr noundef %2) #11
  br label %_ZNK7oopDesc14print_value_onEP12outputStream.exit

_ZNK7oopDesc14print_value_onEP12outputStream.exit: ; preds = %20, %_ZNK7oopDesc5klassEv.exit.i
  ret void
}